; Function Attrs: mustprogress nofree nounwind willreturn memory(read) uwtable
define dso_local noundef zeroext i1 @_ZN5clang7CodeGen15CodeGenFunction23isInstrumentedConditionEPKNS_4ExprE(ptr noundef nonnull readonly %0) local_unnamed_addr #11 align 2 {
  %2 = tail call noundef ptr @_ZN5clang4Expr12IgnoreParensEv(ptr noundef nonnull readonly align 8 dereferenceable(16) %0) #23
  %3 = load i8, ptr %2, align 8
  %.not8.i = icmp eq i8 %3, 4
  br i1 %.not8.i, label %.lr.ph.i, label %_ZN5clang7CodeGen15CodeGenFunction9stripCondEPKNS_4ExprE.exit

.lr.ph.i:                                         ; preds = %1, %7
  %4 = phi ptr [ %10, %7 ], [ %2, %1 ]
  %5 = load i32, ptr %4, align 8
  %6 = and i32 %5, 8126464
  %.not6.i = icmp eq i32 %6, 2359296
  br i1 %.not6.i, label %7, label %_ZN5clang7CodeGen15CodeGenFunction9stripCondEPKNS_4ExprE.exit.loopexit.split.loop.exit3

7:                                                ; preds = %.lr.ph.i
  %8 = getelementptr inbounds nuw i8, ptr %4, i64 16
  %9 = load ptr, ptr %8, align 8
  %10 = tail call noundef ptr @_ZN5clang4Expr12IgnoreParensEv(ptr noundef nonnull align 8 dereferenceable(16) %9) #23
  %11 = load i8, ptr %10, align 8
  %.not.i = icmp eq i8 %11, 4
  br i1 %.not.i, label %.lr.ph.i, label %_ZN5clang7CodeGen15CodeGenFunction9stripCondEPKNS_4ExprE.exit, !llvm.loop !168

_ZN5clang7CodeGen15CodeGenFunction9stripCondEPKNS_4ExprE.exit.loopexit.split.loop.exit3: ; preds = %.lr.ph.i
  %12 = trunc i32 %5 to i8
  br label %_ZN5clang7CodeGen15CodeGenFunction9stripCondEPKNS_4ExprE.exit

_ZN5clang7CodeGen15CodeGenFunction9stripCondEPKNS_4ExprE.exit: ; preds = %7, %_ZN5clang7CodeGen15CodeGenFunction9stripCondEPKNS_4ExprE.exit.loopexit.split.loop.exit3, %1
  %13 = phi i8 [ %3, %1 ], [ %12, %_ZN5clang7CodeGen15CodeGenFunction9stripCondEPKNS_4ExprE.exit.loopexit.split.loop.exit3 ], [ %11, %7 ]
  %.lcssa.i = phi ptr [ %2, %1 ], [ %4, %_ZN5clang7CodeGen15CodeGenFunction9stripCondEPKNS_4ExprE.exit.loopexit.split.loop.exit3 ], [ %10, %7 ]
  %14 = and i8 %13, -2
  %spec.select.i.i.i.i.i.i.i.i.not = icmp eq i8 %14, 118
  br i1 %spec.select.i.i.i.i.i.i.i.i.not, label %15, label %21

15:                                               ; preds = %_ZN5clang7CodeGen15CodeGenFunction9stripCondEPKNS_4ExprE.exit
  %16 = load i32, ptr %.lcssa.i, align 8
  %17 = lshr i32 %16, 18
  %18 = and i32 %17, 63
  %19 = add nsw i32 %18, -21
  %20 = icmp ult i32 %19, -2
  br label %21

21:                                               ; preds = %15, %_ZN5clang7CodeGen15CodeGenFunction9stripCondEPKNS_4ExprE.exit
  %22 = phi i1 [ true, %_ZN5clang7CodeGen15CodeGenFunction9stripCondEPKNS_4ExprE.exit ], [ %20, %15 ]
  ret i1 %22
}